target datalayout = "e-m:e-p270:32:32-p271:32:32-p272:64:64-i64:64-i128:128-f80:128-n8:16:32:64-S128"
target triple = "x86_64-unknown-linux-gnu"

%"class.grpc_core::Call" = type { ptr, %"class.grpc_core::RefCountedPtr", ptr, %"struct.std::atomic.0", ptr, %"class.grpc_core::Timestamp", i8, i8, i32, %"class.grpc_core::CompressionAlgorithmSet", i32, %"class.absl::lts_20230802::Mutex", %"class.grpc_core::Slice", double }
%"class.grpc_core::RefCountedPtr" = type { ptr }
%"struct.std::atomic.0" = type { %"struct.std::__atomic_base.1" }
%"struct.std::__atomic_base.1" = type { ptr }
%"class.grpc_core::Timestamp" = type { i64 }
%"class.grpc_core::CompressionAlgorithmSet" = type { %"class.grpc_core::BitSet" }
%"class.grpc_core::BitSet" = type { [1 x i8] }
%"class.absl::lts_20230802::Mutex" = type { %"struct.std::atomic.2" }
%"struct.std::atomic.2" = type { %"struct.std::__atomic_base.3" }
%"struct.std::__atomic_base.3" = type { i64 }
%"class.grpc_core::Slice" = type { %"class.grpc_core::slice_detail::BaseSlice" }
%"class.grpc_core::slice_detail::BaseSlice" = type { %struct.grpc_slice }
%struct.grpc_slice = type { ptr, %"union.grpc_slice::grpc_slice_data" }
%"union.grpc_slice::grpc_slice_data" = type { %"struct.grpc_slice::grpc_slice_data::grpc_slice_refcounted", [8 x i8] }
%"struct.grpc_slice::grpc_slice_data::grpc_slice_refcounted" = type { i64, ptr }

; Function Attrs: mustprogress nounwind uwtable
define linkonce_odr i8 @_ZN9grpc_core4Call26encodings_accepted_by_peerEv(ptr noundef nonnull align 8 dereferenceable(112) %this) #5 comdat align 2 {
entry:
  %retval = alloca %"class.grpc_core::CompressionAlgorithmSet", align 1
  %this.addr = alloca ptr, align 8
  store ptr %this, ptr %this.addr, align 8
  %this1 = load ptr, ptr %this.addr, align 8
  %encodings_accepted_by_peer_ = getelementptr inbounds %"class.grpc_core::Call", ptr %this1, i32 0, i32 9
  call void @llvm.memcpy.p0.p0.i64(ptr align 1 %retval, ptr align 8 %encodings_accepted_by_peer_, i64 1, i1 false)
  %coerce.dive = getelementptr inbounds %"class.grpc_core::CompressionAlgorithmSet", ptr %retval, i32 0, i32 0
  %coerce.dive2 = getelementptr inbounds %"class.grpc_core::BitSet", ptr %coerce.dive, i32 0, i32 0
  %0 = load i8, ptr %coerce.dive2, align 1
  ret i8 %0
}

; Function Attrs: mustprogress nounwind uwtable
define linkonce_odr noundef ptr @_ZN9grpc_core9CppImplOfINS_4CallE9grpc_callE5FromCEPS2_(ptr noundef %c_type) #5 comdat align 2 {
entry:
  %c_type.addr = alloca ptr, align 8
  store ptr %c_type, ptr %c_type.addr, align 8
  %0 = load ptr, ptr %c_type.addr, align 8
  ret ptr %0
}

; Function Attrs: mustprogress uwtable
define noundef i32 @_Z31grpc_call_compression_for_levelP9grpc_call22grpc_compression_level(ptr noundef %call, i32 noundef %level) #4 {
entry:
  %call.addr = alloca ptr, align 8
  %level.addr = alloca i32, align 4
  %ref.tmp = alloca %"class.grpc_core::CompressionAlgorithmSet", align 1
  store ptr %call, ptr %call.addr, align 8
  store i32 %level, ptr %level.addr, align 4
  %0 = load ptr, ptr %call.addr, align 8
  %call1 = call noundef ptr @_ZN9grpc_core9CppImplOfINS_4CallE9grpc_callE5FromCEPS2_(ptr noundef %0)
  %call2 = call i8 @_ZN9grpc_core4Call26encodings_accepted_by_peerEv(ptr noundef nonnull align 8 dereferenceable(112) %call1)
  %coerce.dive = getelementptr inbounds %"class.grpc_core::CompressionAlgorithmSet", ptr %ref.tmp, i32 0, i32 0
  %coerce.dive3 = getelementptr inbounds %"class.grpc_core::BitSet", ptr %coerce.dive, i32 0, i32 0
  store i8 %call2, ptr %coerce.dive3, align 1
  %1 = load i32, ptr %level.addr, align 4
  %call4 = call noundef i32 @_ZNK9grpc_core23CompressionAlgorithmSet28CompressionAlgorithmForLevelE22grpc_compression_level(ptr noundef nonnull align 1 dereferenceable(1) %ref.tmp, i32 noundef %1)
  ret i32 %call4
}