; Function Attrs: mustprogress uwtable
define noundef i32 @_Z31grpc_call_compression_for_levelP9grpc_call22grpc_compression_level(ptr nocapture noundef readonly %call, i32 noundef %level) local_unnamed_addr #3 {
entry:
  %ref.tmp = alloca %"class.grpc_core::CompressionAlgorithmSet", align 1
  %encodings_accepted_by_peer_.i = getelementptr inbounds i8, ptr %call, i64 56
  %retval.sroa.0.0.copyload.i = load i8, ptr %encodings_accepted_by_peer_.i, align 8
  store i8 %retval.sroa.0.0.copyload.i, ptr %ref.tmp, align 1
  %call4 = call noundef i32 @_ZNK9grpc_core23CompressionAlgorithmSet28CompressionAlgorithmForLevelE22grpc_compression_level(ptr noundef nonnull align 1 dereferenceable(1) %ref.tmp, i32 noundef %level)
  ret i32 %call4
}